target datalayout = "e-m:e-p270:32:32-p271:32:32-p272:64:64-i64:64-i128:128-f80:128-n8:16:32:64-S128"
target triple = "x86_64-pc-linux-gnu"

%struct.epan_column_info = type { ptr, i32, ptr, ptr, ptr, %struct.col_expr_t, i32, ptr }
%struct.col_expr_t = type { ptr, ptr }
%struct.col_item_t = type { i32, ptr, ptr, ptr, i32, ptr, ptr, ptr, ptr, i32, i32, i32 }

; Function Attrs: nounwind uwtable
define ptr @col_custom_get_filter(ptr noundef %0, ptr noundef %1, i32 noundef %2) #0 {
  %4 = alloca ptr, align 8
  %5 = alloca ptr, align 8
  %6 = alloca ptr, align 8
  %7 = alloca i32, align 4
  %8 = alloca ptr, align 8
  store ptr %0, ptr %5, align 8
  store ptr %1, ptr %6, align 8
  store i32 %2, ptr %7, align 4
  br label %9

9:                                                ; preds = %3
  br label %10

10:                                               ; preds = %9
  br label %11

11:                                               ; preds = %10
  br label %12

12:                                               ; preds = %11
  %13 = load ptr, ptr %6, align 8
  %14 = getelementptr inbounds %struct.epan_column_info, ptr %13, i32 0, i32 2
  %15 = load ptr, ptr %14, align 8
  %16 = load i32, ptr %7, align 4
  %17 = sext i32 %16 to i64
  %18 = getelementptr %struct.col_item_t, ptr %15, i64 %17
  store ptr %18, ptr %8, align 8
  %19 = load ptr, ptr %8, align 8
  %20 = getelementptr inbounds %struct.col_item_t, ptr %19, i32 0, i32 1
  %21 = load ptr, ptr %20, align 8
  %22 = getelementptr i32, ptr %21, i64 4
  %23 = load i32, ptr %22, align 4
  %24 = icmp ne i32 %23, 0
  br i1 %24, label %25, label %44

25:                                               ; preds = %12
  %26 = load ptr, ptr %8, align 8
  %27 = getelementptr inbounds %struct.col_item_t, ptr %26, i32 0, i32 3
  %28 = load ptr, ptr %27, align 8
  %29 = icmp ne ptr %28, null
  br i1 %29, label %30, label %44

30:                                               ; preds = %25
  %31 = load ptr, ptr %8, align 8
  %32 = getelementptr inbounds %struct.col_item_t, ptr %31, i32 0, i32 5
  %33 = load ptr, ptr %32, align 8
  %34 = icmp ne ptr %33, null
  br i1 %34, label %35, label %44

35:                                               ; preds = %30
  %36 = load ptr, ptr %5, align 8
  %37 = load ptr, ptr %8, align 8
  %38 = getelementptr inbounds %struct.col_item_t, ptr %37, i32 0, i32 5
  %39 = load ptr, ptr %38, align 8
  %40 = load ptr, ptr %8, align 8
  %41 = getelementptr inbounds %struct.col_item_t, ptr %40, i32 0, i32 4
  %42 = load i32, ptr %41, align 8
  %43 = call ptr @proto_custom_get_filter(ptr noundef %36, ptr noundef %39, i32 noundef %42)
  store ptr %43, ptr %4, align 8
  br label %45

44:                                               ; preds = %30, %25, %12
  store ptr null, ptr %4, align 8
  br label %45

45:                                               ; preds = %44, %35
  %46 = load ptr, ptr %4, align 8
  ret ptr %46
}