; Function Attrs: nounwind uwtable
define ptr @col_custom_get_filter(ptr noundef %0, ptr noundef readonly captures(none) %1, i32 noundef %2) local_unnamed_addr #0 {
  %4 = getelementptr inbounds nuw i8, ptr %1, i64 16
  %5 = load ptr, ptr %4, align 8
  %6 = sext i32 %2 to i64
  %7 = getelementptr %struct.col_item_t, ptr %5, i64 %6
  %8 = getelementptr inbounds nuw i8, ptr %7, i64 8
  %9 = load ptr, ptr %8, align 8
  %10 = getelementptr i8, ptr %9, i64 16
  %11 = load i32, ptr %10, align 4
  %.not = icmp eq i32 %11, 0
  br i1 %.not, label %22, label %12

12:                                               ; preds = %3
  %13 = getelementptr inbounds nuw i8, ptr %7, i64 24
  %14 = load ptr, ptr %13, align 8
  %.not9 = icmp eq ptr %14, null
  br i1 %.not9, label %22, label %15

15:                                               ; preds = %12
  %16 = getelementptr inbounds nuw i8, ptr %7, i64 40
  %17 = load ptr, ptr %16, align 8
  %.not10 = icmp eq ptr %17, null
  br i1 %.not10, label %22, label %18

18:                                               ; preds = %15
  %19 = getelementptr inbounds nuw i8, ptr %7, i64 32
  %20 = load i32, ptr %19, align 8
  %21 = tail call ptr @proto_custom_get_filter(ptr noundef %0, ptr noundef nonnull %17, i32 noundef %20) #16
  br label %22

22:                                               ; preds = %3, %12, %15, %18
  %.0 = phi ptr [ %21, %18 ], [ null, %15 ], [ null, %12 ], [ null, %3 ]
  ret ptr %.0
}